target datalayout = "e-m:e-p270:32:32-p271:32:32-p272:64:64-i64:64-i128:128-f80:128-n8:16:32:64-S128"
target triple = "x86_64-pc-linux-gnu"

%struct.add_p_state = type { %struct.add_i_state, %struct.strbuf, %struct.strbuf, %struct.strbuf, %struct.strbuf, ptr, i64, ptr, ptr }
%struct.add_i_state = type { ptr, i32, [75 x i8], [75 x i8], [75 x i8], [75 x i8], [75 x i8], [75 x i8], [75 x i8], [75 x i8], [75 x i8], i32, ptr, ptr }
%struct.strbuf = type { i64, i64, ptr }
%struct.patch_mode = type { [4 x ptr], [4 x ptr], [4 x ptr], i8, [4 x ptr], ptr, ptr }
%struct.hunk = type { i64, i64, i64, i64, i64, i64, i32, %struct.hunk_header }
%struct.hunk_header = type { i64, i64, i64, i64, i64, i64, i64, i64, i8 }

@.str.95 = private unnamed_addr constant [4 x i8] c" @@\00", align 1
@.str.127 = private unnamed_addr constant [8 x i8] c"@@ -%lu\00", align 1
@.str.128 = private unnamed_addr constant [5 x i8] c",%lu\00", align 1
@.str.129 = private unnamed_addr constant [6 x i8] c" +%lu\00", align 1
@.str.130 = private unnamed_addr constant [4 x i8] c"%s\0A\00", align 1

; Function Attrs: inlinehint nounwind uwtable
define internal i64 @strbuf_avail(ptr noundef %0) #5 {
  %2 = alloca ptr, align 8
  store ptr %0, ptr %2, align 8, !tbaa !56
  %3 = load ptr, ptr %2, align 8, !tbaa !56
  %4 = getelementptr inbounds nuw %struct.strbuf, ptr %3, i32 0, i32 0
  %5 = load i64, ptr %4, align 8, !tbaa !110
  %6 = icmp ne i64 %5, 0
  br i1 %6, label %7, label %16

7:                                                ; preds = %1
  %8 = load ptr, ptr %2, align 8, !tbaa !56
  %9 = getelementptr inbounds nuw %struct.strbuf, ptr %8, i32 0, i32 0
  %10 = load i64, ptr %9, align 8, !tbaa !110
  %11 = load ptr, ptr %2, align 8, !tbaa !56
  %12 = getelementptr inbounds nuw %struct.strbuf, ptr %11, i32 0, i32 1
  %13 = load i64, ptr %12, align 8, !tbaa !75
  %14 = sub i64 %10, %13
  %15 = sub i64 %14, 1
  br label %17

16:                                               ; preds = %1
  br label %17

17:                                               ; preds = %16, %7
  %18 = phi i64 [ %15, %7 ], [ 0, %16 ]
  ret i64 %18
}

; Function Attrs: inlinehint nounwind uwtable
define internal void @strbuf_addch(ptr noundef %0, i32 noundef %1) #5 {
  %3 = alloca ptr, align 8
  %4 = alloca i32, align 4
  store ptr %0, ptr %3, align 8, !tbaa !56
  store i32 %1, ptr %4, align 4, !tbaa !9
  %5 = load ptr, ptr %3, align 8, !tbaa !56
  %6 = call i64 @strbuf_avail(ptr noundef %5)
  %7 = icmp ne i64 %6, 0
  br i1 %7, label %10, label %8

8:                                                ; preds = %2
  %9 = load ptr, ptr %3, align 8, !tbaa !56
  call void @strbuf_grow(ptr noundef %9, i64 noundef 1)
  br label %10

10:                                               ; preds = %8, %2
  %11 = load i32, ptr %4, align 4, !tbaa !9
  %12 = trunc i32 %11 to i8
  %13 = load ptr, ptr %3, align 8, !tbaa !56
  %14 = getelementptr inbounds nuw %struct.strbuf, ptr %13, i32 0, i32 2
  %15 = load ptr, ptr %14, align 8, !tbaa !17
  %16 = load ptr, ptr %3, align 8, !tbaa !56
  %17 = getelementptr inbounds nuw %struct.strbuf, ptr %16, i32 0, i32 1
  %18 = load i64, ptr %17, align 8, !tbaa !75
  %19 = add i64 %18, 1
  store i64 %19, ptr %17, align 8, !tbaa !75
  %20 = getelementptr inbounds nuw i8, ptr %15, i64 %18
  store i8 %12, ptr %20, align 1, !tbaa !58
  %21 = load ptr, ptr %3, align 8, !tbaa !56
  %22 = getelementptr inbounds nuw %struct.strbuf, ptr %21, i32 0, i32 2
  %23 = load ptr, ptr %22, align 8, !tbaa !17
  %24 = load ptr, ptr %3, align 8, !tbaa !56
  %25 = getelementptr inbounds nuw %struct.strbuf, ptr %24, i32 0, i32 1
  %26 = load i64, ptr %25, align 8, !tbaa !75
  %27 = getelementptr inbounds nuw i8, ptr %23, i64 %26
  store i8 0, ptr %27, align 1, !tbaa !58
  ret void
}

; Function Attrs: inlinehint nounwind uwtable
define internal void @strbuf_addstr(ptr noundef %0, ptr noundef %1) #5 {
  %3 = alloca ptr, align 8
  %4 = alloca ptr, align 8
  store ptr %0, ptr %3, align 8, !tbaa !56
  store ptr %1, ptr %4, align 8, !tbaa !11
  %5 = load ptr, ptr %3, align 8, !tbaa !56
  %6 = load ptr, ptr %4, align 8, !tbaa !11
  %7 = load ptr, ptr %4, align 8, !tbaa !11
  %8 = call i64 @strlen(ptr noundef %7) #11
  call void @strbuf_add(ptr noundef %5, ptr noundef %6, i64 noundef %8)
  ret void
}

; Function Attrs: nounwind uwtable
define internal void @render_hunk(ptr noundef %0, ptr noundef %1, i64 noundef %2, i32 noundef %3, ptr noundef %4) #0 {
  %6 = alloca ptr, align 8
  %7 = alloca ptr, align 8
  %8 = alloca i64, align 8
  %9 = alloca i32, align 4
  %10 = alloca ptr, align 8
  %11 = alloca ptr, align 8
  %12 = alloca ptr, align 8
  %13 = alloca i64, align 8
  %14 = alloca i64, align 8
  %15 = alloca i64, align 8
  %16 = alloca i32, align 4
  store ptr %0, ptr %6, align 8, !tbaa !53
  store ptr %1, ptr %7, align 8, !tbaa !60
  store i64 %2, ptr %8, align 8, !tbaa !20
  store i32 %3, ptr %9, align 4, !tbaa !9
  store ptr %4, ptr %10, align 8, !tbaa !56
  call void @llvm.lifetime.start.p0(i64 8, ptr %11) #10
  %17 = load ptr, ptr %7, align 8, !tbaa !60
  %18 = getelementptr inbounds nuw %struct.hunk, ptr %17, i32 0, i32 7
  store ptr %18, ptr %11, align 8, !tbaa !114
  %19 = load ptr, ptr %7, align 8, !tbaa !60
  %20 = getelementptr inbounds nuw %struct.hunk, ptr %19, i32 0, i32 7
  %21 = getelementptr inbounds nuw %struct.hunk_header, ptr %20, i32 0, i32 0
  %22 = load i64, ptr %21, align 8, !tbaa !126
  %23 = icmp ne i64 %22, 0
  br i1 %23, label %30, label %24

24:                                               ; preds = %5
  %25 = load ptr, ptr %7, align 8, !tbaa !60
  %26 = getelementptr inbounds nuw %struct.hunk, ptr %25, i32 0, i32 7
  %27 = getelementptr inbounds nuw %struct.hunk_header, ptr %26, i32 0, i32 2
  %28 = load i64, ptr %27, align 8, !tbaa !127
  %29 = icmp ne i64 %28, 0
  br i1 %29, label %30, label %182

30:                                               ; preds = %24, %5
  call void @llvm.lifetime.start.p0(i64 8, ptr %12) #10
  call void @llvm.lifetime.start.p0(i64 8, ptr %13) #10
  call void @llvm.lifetime.start.p0(i64 8, ptr %14) #10
  %31 = load ptr, ptr %11, align 8, !tbaa !114
  %32 = getelementptr inbounds nuw %struct.hunk_header, ptr %31, i32 0, i32 0
  %33 = load i64, ptr %32, align 8, !tbaa !128
  store i64 %33, ptr %14, align 8, !tbaa !20
  call void @llvm.lifetime.start.p0(i64 8, ptr %15) #10
  %34 = load ptr, ptr %11, align 8, !tbaa !114
  %35 = getelementptr inbounds nuw %struct.hunk_header, ptr %34, i32 0, i32 2
  %36 = load i64, ptr %35, align 8, !tbaa !129
  store i64 %36, ptr %15, align 8, !tbaa !20
  %37 = load i32, ptr %9, align 4, !tbaa !9
  %38 = icmp ne i32 %37, 0
  br i1 %38, label %55, label %39

39:                                               ; preds = %30
  %40 = load ptr, ptr %6, align 8, !tbaa !53
  %41 = getelementptr inbounds nuw %struct.add_p_state, ptr %40, i32 0, i32 3
  %42 = getelementptr inbounds nuw %struct.strbuf, ptr %41, i32 0, i32 2
  %43 = load ptr, ptr %42, align 8, !tbaa !116
  %44 = load ptr, ptr %11, align 8, !tbaa !114
  %45 = getelementptr inbounds nuw %struct.hunk_header, ptr %44, i32 0, i32 4
  %46 = load i64, ptr %45, align 8, !tbaa !118
  %47 = getelementptr inbounds nuw i8, ptr %43, i64 %46
  store ptr %47, ptr %12, align 8, !tbaa !11
  %48 = load ptr, ptr %11, align 8, !tbaa !114
  %49 = getelementptr inbounds nuw %struct.hunk_header, ptr %48, i32 0, i32 5
  %50 = load i64, ptr %49, align 8, !tbaa !119
  %51 = load ptr, ptr %11, align 8, !tbaa !114
  %52 = getelementptr inbounds nuw %struct.hunk_header, ptr %51, i32 0, i32 4
  %53 = load i64, ptr %52, align 8, !tbaa !118
  %54 = sub i64 %50, %53
  store i64 %54, ptr %13, align 8, !tbaa !20
  br label %117

55:                                               ; preds = %30
  %56 = load ptr, ptr %11, align 8, !tbaa !114
  %57 = getelementptr inbounds nuw %struct.hunk_header, ptr %56, i32 0, i32 8
  %58 = load i8, ptr %57, align 8
  %59 = and i8 %58, 1
  %60 = zext i8 %59 to i32
  %61 = icmp ne i32 %60, 0
  br i1 %61, label %62, label %95

62:                                               ; preds = %55
  %63 = load ptr, ptr %10, align 8, !tbaa !56
  %64 = load ptr, ptr %6, align 8, !tbaa !53
  %65 = getelementptr inbounds nuw %struct.add_p_state, ptr %64, i32 0, i32 4
  %66 = getelementptr inbounds nuw %struct.strbuf, ptr %65, i32 0, i32 2
  %67 = load ptr, ptr %66, align 8, !tbaa !122
  %68 = load ptr, ptr %11, align 8, !tbaa !114
  %69 = getelementptr inbounds nuw %struct.hunk_header, ptr %68, i32 0, i32 6
  %70 = load i64, ptr %69, align 8, !tbaa !121
  %71 = getelementptr inbounds nuw i8, ptr %67, i64 %70
  %72 = load ptr, ptr %11, align 8, !tbaa !114
  %73 = getelementptr inbounds nuw %struct.hunk_header, ptr %72, i32 0, i32 7
  %74 = load i64, ptr %73, align 8, !tbaa !120
  %75 = load ptr, ptr %11, align 8, !tbaa !114
  %76 = getelementptr inbounds nuw %struct.hunk_header, ptr %75, i32 0, i32 6
  %77 = load i64, ptr %76, align 8, !tbaa !121
  %78 = sub i64 %74, %77
  call void @strbuf_add(ptr noundef %63, ptr noundef %71, i64 noundef %78)
  %79 = load ptr, ptr %10, align 8, !tbaa !56
  %80 = load ptr, ptr %6, align 8, !tbaa !53
  %81 = getelementptr inbounds nuw %struct.add_p_state, ptr %80, i32 0, i32 4
  %82 = getelementptr inbounds nuw %struct.strbuf, ptr %81, i32 0, i32 2
  %83 = load ptr, ptr %82, align 8, !tbaa !122
  %84 = load ptr, ptr %7, align 8, !tbaa !60
  %85 = getelementptr inbounds nuw %struct.hunk, ptr %84, i32 0, i32 2
  %86 = load i64, ptr %85, align 8, !tbaa !78
  %87 = getelementptr inbounds nuw i8, ptr %83, i64 %86
  %88 = load ptr, ptr %7, align 8, !tbaa !60
  %89 = getelementptr inbounds nuw %struct.hunk, ptr %88, i32 0, i32 3
  %90 = load i64, ptr %89, align 8, !tbaa !84
  %91 = load ptr, ptr %7, align 8, !tbaa !60
  %92 = getelementptr inbounds nuw %struct.hunk, ptr %91, i32 0, i32 2
  %93 = load i64, ptr %92, align 8, !tbaa !78
  %94 = sub i64 %90, %93
  call void @strbuf_add(ptr noundef %79, ptr noundef %87, i64 noundef %94)
  store i32 1, ptr %16, align 4
  br label %179

95:                                               ; preds = %55
  %96 = load ptr, ptr %10, align 8, !tbaa !56
  %97 = load ptr, ptr %6, align 8, !tbaa !53
  %98 = getelementptr inbounds nuw %struct.add_p_state, ptr %97, i32 0, i32 0
  %99 = getelementptr inbounds nuw %struct.add_i_state, ptr %98, i32 0, i32 7
  %100 = getelementptr inbounds [75 x i8], ptr %99, i64 0, i64 0
  call void @strbuf_addstr(ptr noundef %96, ptr noundef %100)
  %101 = load ptr, ptr %6, align 8, !tbaa !53
  %102 = getelementptr inbounds nuw %struct.add_p_state, ptr %101, i32 0, i32 4
  %103 = getelementptr inbounds nuw %struct.strbuf, ptr %102, i32 0, i32 2
  %104 = load ptr, ptr %103, align 8, !tbaa !122
  %105 = load ptr, ptr %11, align 8, !tbaa !114
  %106 = getelementptr inbounds nuw %struct.hunk_header, ptr %105, i32 0, i32 6
  %107 = load i64, ptr %106, align 8, !tbaa !121
  %108 = getelementptr inbounds nuw i8, ptr %104, i64 %107
  store ptr %108, ptr %12, align 8, !tbaa !11
  %109 = load ptr, ptr %11, align 8, !tbaa !114
  %110 = getelementptr inbounds nuw %struct.hunk_header, ptr %109, i32 0, i32 7
  %111 = load i64, ptr %110, align 8, !tbaa !120
  %112 = load ptr, ptr %11, align 8, !tbaa !114
  %113 = getelementptr inbounds nuw %struct.hunk_header, ptr %112, i32 0, i32 6
  %114 = load i64, ptr %113, align 8, !tbaa !121
  %115 = sub i64 %111, %114
  store i64 %115, ptr %13, align 8, !tbaa !20
  br label %116

116:                                              ; preds = %95
  br label %117

117:                                              ; preds = %116, %39
  %118 = load ptr, ptr %6, align 8, !tbaa !53
  %119 = getelementptr inbounds nuw %struct.add_p_state, ptr %118, i32 0, i32 7
  %120 = load ptr, ptr %119, align 8, !tbaa !21
  %121 = getelementptr inbounds nuw %struct.patch_mode, ptr %120, i32 0, i32 3
  %122 = load i8, ptr %121, align 8
  %123 = and i8 %122, 1
  %124 = zext i8 %123 to i32
  %125 = icmp ne i32 %124, 0
  br i1 %125, label %126, label %130

126:                                              ; preds = %117
  %127 = load i64, ptr %8, align 8, !tbaa !20
  %128 = load i64, ptr %14, align 8, !tbaa !20
  %129 = sub i64 %128, %127
  store i64 %129, ptr %14, align 8, !tbaa !20
  br label %134

130:                                              ; preds = %117
  %131 = load i64, ptr %8, align 8, !tbaa !20
  %132 = load i64, ptr %15, align 8, !tbaa !20
  %133 = add i64 %132, %131
  store i64 %133, ptr %15, align 8, !tbaa !20
  br label %134

134:                                              ; preds = %130, %126
  %135 = load ptr, ptr %10, align 8, !tbaa !56
  %136 = load i64, ptr %14, align 8, !tbaa !20
  call void (ptr, ptr, ...) @strbuf_addf(ptr noundef %135, ptr noundef @.str.127, i64 noundef %136)
  %137 = load ptr, ptr %11, align 8, !tbaa !114
  %138 = getelementptr inbounds nuw %struct.hunk_header, ptr %137, i32 0, i32 1
  %139 = load i64, ptr %138, align 8, !tbaa !130
  %140 = icmp ne i64 %139, 1
  br i1 %140, label %141, label %146

141:                                              ; preds = %134
  %142 = load ptr, ptr %10, align 8, !tbaa !56
  %143 = load ptr, ptr %11, align 8, !tbaa !114
  %144 = getelementptr inbounds nuw %struct.hunk_header, ptr %143, i32 0, i32 1
  %145 = load i64, ptr %144, align 8, !tbaa !130
  call void (ptr, ptr, ...) @strbuf_addf(ptr noundef %142, ptr noundef @.str.128, i64 noundef %145)
  br label %146

146:                                              ; preds = %141, %134
  %147 = load ptr, ptr %10, align 8, !tbaa !56
  %148 = load i64, ptr %15, align 8, !tbaa !20
  call void (ptr, ptr, ...) @strbuf_addf(ptr noundef %147, ptr noundef @.str.129, i64 noundef %148)
  %149 = load ptr, ptr %11, align 8, !tbaa !114
  %150 = getelementptr inbounds nuw %struct.hunk_header, ptr %149, i32 0, i32 3
  %151 = load i64, ptr %150, align 8, !tbaa !131
  %152 = icmp ne i64 %151, 1
  br i1 %152, label %153, label %158

153:                                              ; preds = %146
  %154 = load ptr, ptr %10, align 8, !tbaa !56
  %155 = load ptr, ptr %11, align 8, !tbaa !114
  %156 = getelementptr inbounds nuw %struct.hunk_header, ptr %155, i32 0, i32 3
  %157 = load i64, ptr %156, align 8, !tbaa !131
  call void (ptr, ptr, ...) @strbuf_addf(ptr noundef %154, ptr noundef @.str.128, i64 noundef %157)
  br label %158

158:                                              ; preds = %153, %146
  %159 = load ptr, ptr %10, align 8, !tbaa !56
  call void @strbuf_addstr(ptr noundef %159, ptr noundef @.str.95)
  %160 = load i64, ptr %13, align 8, !tbaa !20
  %161 = icmp ne i64 %160, 0
  br i1 %161, label %162, label %166

162:                                              ; preds = %158
  %163 = load ptr, ptr %10, align 8, !tbaa !56
  %164 = load ptr, ptr %12, align 8, !tbaa !11
  %165 = load i64, ptr %13, align 8, !tbaa !20
  call void @strbuf_add(ptr noundef %163, ptr noundef %164, i64 noundef %165)
  br label %178

166:                                              ; preds = %158
  %167 = load i32, ptr %9, align 4, !tbaa !9
  %168 = icmp ne i32 %167, 0
  br i1 %168, label %169, label %175

169:                                              ; preds = %166
  %170 = load ptr, ptr %10, align 8, !tbaa !56
  %171 = load ptr, ptr %6, align 8, !tbaa !53
  %172 = getelementptr inbounds nuw %struct.add_p_state, ptr %171, i32 0, i32 0
  %173 = getelementptr inbounds nuw %struct.add_i_state, ptr %172, i32 0, i32 6
  %174 = getelementptr inbounds [75 x i8], ptr %173, i64 0, i64 0
  call void (ptr, ptr, ...) @strbuf_addf(ptr noundef %170, ptr noundef @.str.130, ptr noundef %174)
  br label %177

175:                                              ; preds = %166
  %176 = load ptr, ptr %10, align 8, !tbaa !56
  call void @strbuf_addch(ptr noundef %176, i32 noundef 10)
  br label %177

177:                                              ; preds = %175, %169
  br label %178

178:                                              ; preds = %177, %162
  store i32 0, ptr %16, align 4
  br label %179

179:                                              ; preds = %178, %62
  call void @llvm.lifetime.end.p0(i64 8, ptr %15) #10
  call void @llvm.lifetime.end.p0(i64 8, ptr %14) #10
  call void @llvm.lifetime.end.p0(i64 8, ptr %13) #10
  call void @llvm.lifetime.end.p0(i64 8, ptr %12) #10
  %180 = load i32, ptr %16, align 4
  switch i32 %180, label %220 [
    i32 0, label %181
  ]

181:                                              ; preds = %179
  br label %182

182:                                              ; preds = %181, %24
  %183 = load i32, ptr %9, align 4, !tbaa !9
  %184 = icmp ne i32 %183, 0
  br i1 %184, label %185, label %202

185:                                              ; preds = %182
  %186 = load ptr, ptr %10, align 8, !tbaa !56
  %187 = load ptr, ptr %6, align 8, !tbaa !53
  %188 = getelementptr inbounds nuw %struct.add_p_state, ptr %187, i32 0, i32 4
  %189 = getelementptr inbounds nuw %struct.strbuf, ptr %188, i32 0, i32 2
  %190 = load ptr, ptr %189, align 8, !tbaa !122
  %191 = load ptr, ptr %7, align 8, !tbaa !60
  %192 = getelementptr inbounds nuw %struct.hunk, ptr %191, i32 0, i32 2
  %193 = load i64, ptr %192, align 8, !tbaa !78
  %194 = getelementptr inbounds nuw i8, ptr %190, i64 %193
  %195 = load ptr, ptr %7, align 8, !tbaa !60
  %196 = getelementptr inbounds nuw %struct.hunk, ptr %195, i32 0, i32 3
  %197 = load i64, ptr %196, align 8, !tbaa !84
  %198 = load ptr, ptr %7, align 8, !tbaa !60
  %199 = getelementptr inbounds nuw %struct.hunk, ptr %198, i32 0, i32 2
  %200 = load i64, ptr %199, align 8, !tbaa !78
  %201 = sub i64 %197, %200
  call void @strbuf_add(ptr noundef %186, ptr noundef %194, i64 noundef %201)
  br label %219

202:                                              ; preds = %182
  %203 = load ptr, ptr %10, align 8, !tbaa !56
  %204 = load ptr, ptr %6, align 8, !tbaa !53
  %205 = getelementptr inbounds nuw %struct.add_p_state, ptr %204, i32 0, i32 3
  %206 = getelementptr inbounds nuw %struct.strbuf, ptr %205, i32 0, i32 2
  %207 = load ptr, ptr %206, align 8, !tbaa !116
  %208 = load ptr, ptr %7, align 8, !tbaa !60
  %209 = getelementptr inbounds nuw %struct.hunk, ptr %208, i32 0, i32 0
  %210 = load i64, ptr %209, align 8, !tbaa !77
  %211 = getelementptr inbounds nuw i8, ptr %207, i64 %210
  %212 = load ptr, ptr %7, align 8, !tbaa !60
  %213 = getelementptr inbounds nuw %struct.hunk, ptr %212, i32 0, i32 1
  %214 = load i64, ptr %213, align 8, !tbaa !82
  %215 = load ptr, ptr %7, align 8, !tbaa !60
  %216 = getelementptr inbounds nuw %struct.hunk, ptr %215, i32 0, i32 0
  %217 = load i64, ptr %216, align 8, !tbaa !77
  %218 = sub i64 %214, %217
  call void @strbuf_add(ptr noundef %203, ptr noundef %211, i64 noundef %218)
  br label %219

219:                                              ; preds = %202, %185
  store i32 0, ptr %16, align 4
  br label %220

220:                                              ; preds = %219, %179
  call void @llvm.lifetime.end.p0(i64 8, ptr %11) #10
  %221 = load i32, ptr %16, align 4
  switch i32 %221, label %223 [
    i32 0, label %222
    i32 1, label %222
  ]

222:                                              ; preds = %220, %220
  ret void

223:                                              ; preds = %220
  unreachable
}