; Function Attrs: nounwind uwtable
define internal fastcc void @render_hunk(ptr noundef nonnull %0, ptr noundef readonly captures(none) %1, i64 noundef %2, i32 noundef range(i32 0, 2) %3, ptr noundef nonnull %4) unnamed_addr #0 {
  %6 = getelementptr inbounds nuw i8, ptr %1, i64 56
  %7 = load i64, ptr %6, align 8, !tbaa !100
  %.not = icmp eq i64 %7, 0
  %8 = getelementptr inbounds nuw i8, ptr %1, i64 72
  %9 = load i64, ptr %8, align 8, !tbaa !94
  %.not68 = icmp eq i64 %9, 0
  %or.cond = select i1 %.not, i1 %.not68, i1 false
  br i1 %or.cond, label %68, label %._crit_edge

._crit_edge:                                      ; preds = %5
  %.not69 = icmp eq i32 %3, 0
  br i1 %.not69, label %29, label %10

10:                                               ; preds = %._crit_edge
  %11 = getelementptr inbounds nuw i8, ptr %1, i64 120
  %12 = load i8, ptr %11, align 8
  %13 = and i8 %12, 1
  %.not70 = icmp eq i8 %13, 0
  br i1 %.not70, label %26, label %.critedge

.critedge:                                        ; preds = %10
  %14 = getelementptr inbounds nuw i8, ptr %0, i64 800
  %15 = load ptr, ptr %14, align 8, !tbaa !80
  %16 = getelementptr inbounds nuw i8, ptr %1, i64 104
  %17 = load i64, ptr %16, align 8, !tbaa !128
  %18 = getelementptr inbounds nuw i8, ptr %15, i64 %17
  %19 = getelementptr inbounds nuw i8, ptr %1, i64 112
  %20 = load i64, ptr %19, align 8, !tbaa !129
  %21 = sub i64 %20, %17
  tail call void @strbuf_add(ptr noundef nonnull %4, ptr noundef %18, i64 noundef %21) #17
  %22 = load ptr, ptr %14, align 8, !tbaa !80
  %23 = getelementptr inbounds nuw i8, ptr %1, i64 16
  %24 = load i64, ptr %23, align 8, !tbaa !67
  %25 = getelementptr inbounds nuw i8, ptr %22, i64 %24
  br label %80

26:                                               ; preds = %10
  %27 = getelementptr inbounds nuw i8, ptr %0, i64 387
  %28 = tail call i64 @strlen(ptr noundef nonnull dereferenceable(1) %27) #18
  tail call void @strbuf_add(ptr noundef nonnull %4, ptr noundef nonnull %27, i64 noundef %28) #17
  br label %29

29:                                               ; preds = %._crit_edge, %26
  %.sink86 = phi i64 [ 800, %26 ], [ 776, %._crit_edge ]
  %.sink84 = phi i64 [ 104, %26 ], [ 88, %._crit_edge ]
  %.sink = phi i64 [ 112, %26 ], [ 96, %._crit_edge ]
  %30 = getelementptr inbounds nuw i8, ptr %0, i64 %.sink86
  %31 = load ptr, ptr %30, align 8, !tbaa !60
  %32 = getelementptr inbounds nuw i8, ptr %1, i64 %.sink84
  %33 = load i64, ptr %32, align 8, !tbaa !99
  %34 = getelementptr inbounds nuw i8, ptr %31, i64 %33
  %35 = getelementptr inbounds nuw i8, ptr %1, i64 %.sink
  %36 = load i64, ptr %35, align 8, !tbaa !99
  %37 = sub i64 %36, %33
  %38 = getelementptr inbounds nuw i8, ptr %0, i64 824
  %39 = load ptr, ptr %38, align 8, !tbaa !15
  %40 = getelementptr inbounds nuw i8, ptr %39, i64 96
  %41 = load i8, ptr %40, align 8
  %42 = and i8 %41, 1
  %.not71 = icmp eq i8 %42, 0
  %43 = select i1 %.not71, i64 0, i64 %2
  %.063 = sub i64 %7, %43
  %44 = select i1 %.not71, i64 %2, i64 0
  %.062 = add i64 %44, %9
  tail call void (ptr, ptr, ...) @strbuf_addf(ptr noundef nonnull %4, ptr noundef nonnull @.str.127, i64 noundef %.063) #17
  %45 = getelementptr inbounds nuw i8, ptr %1, i64 64
  %46 = load i64, ptr %45, align 8, !tbaa !93
  %.not72 = icmp eq i64 %46, 1
  br i1 %.not72, label %48, label %47

47:                                               ; preds = %29
  tail call void (ptr, ptr, ...) @strbuf_addf(ptr noundef nonnull %4, ptr noundef nonnull @.str.128, i64 noundef %46) #17
  br label %48

48:                                               ; preds = %47, %29
  tail call void (ptr, ptr, ...) @strbuf_addf(ptr noundef nonnull %4, ptr noundef nonnull @.str.129, i64 noundef %.062) #17
  %49 = getelementptr inbounds nuw i8, ptr %1, i64 80
  %50 = load i64, ptr %49, align 8, !tbaa !95
  %.not73 = icmp eq i64 %50, 1
  br i1 %.not73, label %52, label %51

51:                                               ; preds = %48
  tail call void (ptr, ptr, ...) @strbuf_addf(ptr noundef nonnull %4, ptr noundef nonnull @.str.128, i64 noundef %50) #17
  br label %52

52:                                               ; preds = %51, %48
  tail call void @strbuf_add(ptr noundef nonnull %4, ptr noundef nonnull @.str.95, i64 noundef 3) #17
  %.not74 = icmp eq i64 %36, %33
  br i1 %.not74, label %54, label %53

53:                                               ; preds = %52
  tail call void @strbuf_add(ptr noundef nonnull %4, ptr noundef %34, i64 noundef %37) #17
  br label %68

54:                                               ; preds = %52
  br i1 %.not69, label %56, label %.thread77

.thread77:                                        ; preds = %54
  %55 = getelementptr inbounds nuw i8, ptr %0, i64 312
  tail call void (ptr, ptr, ...) @strbuf_addf(ptr noundef nonnull %4, ptr noundef nonnull @.str.130, ptr noundef nonnull %55) #17
  br label %69

56:                                               ; preds = %54
  %57 = load i64, ptr %4, align 8, !tbaa !58
  %.not.i.i = icmp eq i64 %57, 0
  br i1 %.not.i.i, label %strbuf_avail.exit.thread.i, label %strbuf_avail.exit.i

strbuf_avail.exit.i:                              ; preds = %56
  %58 = getelementptr inbounds nuw i8, ptr %4, i64 8
  %59 = load i64, ptr %58, align 8, !tbaa !56
  %.neg.i = add i64 %59, 1
  %.not.i = icmp eq i64 %57, %.neg.i
  br i1 %.not.i, label %strbuf_avail.exit.thread.i, label %.thread

strbuf_avail.exit.thread.i:                       ; preds = %strbuf_avail.exit.i, %56
  tail call void @strbuf_grow(ptr noundef nonnull %4, i64 noundef 1) #17
  %.phi.trans.insert.i = getelementptr inbounds nuw i8, ptr %4, i64 8
  %.pre.i = load i64, ptr %.phi.trans.insert.i, align 8, !tbaa !56
  %.pre7.i = add i64 %.pre.i, 1
  br label %.thread

.thread:                                          ; preds = %strbuf_avail.exit.thread.i, %strbuf_avail.exit.i
  %.pre-phi.i = phi i64 [ %.pre7.i, %strbuf_avail.exit.thread.i ], [ %.neg.i, %strbuf_avail.exit.i ]
  %60 = phi i64 [ %.pre.i, %strbuf_avail.exit.thread.i ], [ %59, %strbuf_avail.exit.i ]
  %61 = getelementptr inbounds nuw i8, ptr %4, i64 16
  %62 = load ptr, ptr %61, align 8, !tbaa !12
  %63 = getelementptr inbounds nuw i8, ptr %4, i64 8
  store i64 %.pre-phi.i, ptr %63, align 8, !tbaa !56
  %64 = getelementptr inbounds nuw i8, ptr %62, i64 %60
  store i8 10, ptr %64, align 1, !tbaa !57
  %65 = load ptr, ptr %61, align 8, !tbaa !12
  %66 = load i64, ptr %63, align 8, !tbaa !56
  %67 = getelementptr inbounds nuw i8, ptr %65, i64 %66
  store i8 0, ptr %67, align 1, !tbaa !57
  br label %75

68:                                               ; preds = %5, %53
  %.not75 = icmp eq i32 %3, 0
  br i1 %.not75, label %75, label %69

69:                                               ; preds = %.thread77, %68
  %70 = getelementptr inbounds nuw i8, ptr %0, i64 800
  %71 = load ptr, ptr %70, align 8, !tbaa !80
  %72 = getelementptr inbounds nuw i8, ptr %1, i64 16
  %73 = load i64, ptr %72, align 8, !tbaa !67
  %74 = getelementptr inbounds nuw i8, ptr %71, i64 %73
  br label %80

75:                                               ; preds = %.thread, %68
  %76 = getelementptr inbounds nuw i8, ptr %0, i64 776
  %77 = load ptr, ptr %76, align 8, !tbaa !81
  %78 = load i64, ptr %1, align 8, !tbaa !66
  %79 = getelementptr inbounds nuw i8, ptr %77, i64 %78
  br label %80

80:                                               ; preds = %69, %75, %.critedge
  %.sink92 = phi i64 [ 24, %69 ], [ 8, %75 ], [ 24, %.critedge ]
  %.sink90 = phi i64 [ %73, %69 ], [ %78, %75 ], [ %24, %.critedge ]
  %.sink87 = phi ptr [ %74, %69 ], [ %79, %75 ], [ %25, %.critedge ]
  %81 = getelementptr inbounds nuw i8, ptr %1, i64 %.sink92
  %82 = load i64, ptr %81, align 8, !tbaa !99
  %83 = sub i64 %82, %.sink90
  tail call void @strbuf_add(ptr noundef nonnull %4, ptr noundef %.sink87, i64 noundef %83) #17
  ret void
}